target datalayout = "e-m:e-p270:32:32-p271:32:32-p272:64:64-i64:64-i128:128-f80:128-n8:16:32:64-S128"
target triple = "x86_64-pc-linux-gnu"

%"struct.url::Parsed" = type { %"struct.url::Component", %"struct.url::Component", %"struct.url::Component", %"struct.url::Component", %"struct.url::Component", %"struct.url::Component", %"struct.url::Component", %"struct.url::Component", ptr }
%"struct.url::Component" = type { i32, i32 }

; Function Attrs: mustprogress nounwind uwtable
define linkonce_odr void @_ZN3url9ComponentC2Eii(ptr noundef nonnull align 4 dereferenceable(8) %0, i32 noundef %1, i32 noundef %2) unnamed_addr #1 comdat align 2 {
  %4 = alloca ptr, align 8
  %5 = alloca i32, align 4
  %6 = alloca i32, align 4
  store ptr %0, ptr %4, align 8, !tbaa !12
  store i32 %1, ptr %5, align 4, !tbaa !17
  store i32 %2, ptr %6, align 4, !tbaa !17
  %7 = load ptr, ptr %4, align 8
  %8 = getelementptr inbounds nuw %"struct.url::Component", ptr %7, i32 0, i32 0
  %9 = load i32, ptr %5, align 4, !tbaa !17
  store i32 %9, ptr %8, align 4, !tbaa !14
  %10 = getelementptr inbounds nuw %"struct.url::Component", ptr %7, i32 0, i32 1
  %11 = load i32, ptr %6, align 4, !tbaa !17
  store i32 %11, ptr %10, align 4, !tbaa !15
  ret void
}

; Function Attrs: inlinehint mustprogress uwtable
define linkonce_odr i64 @_ZN3url9MakeRangeEii(i32 noundef %0, i32 noundef %1) #7 comdat {
  %3 = alloca %"struct.url::Component", align 4
  %4 = alloca i32, align 4
  %5 = alloca i32, align 4
  store i32 %0, ptr %4, align 4, !tbaa !17
  store i32 %1, ptr %5, align 4, !tbaa !17
  %6 = load i32, ptr %4, align 4, !tbaa !17
  %7 = load i32, ptr %5, align 4, !tbaa !17
  %8 = load i32, ptr %4, align 4, !tbaa !17
  %9 = sub nsw i32 %7, %8
  call void @_ZN3url9ComponentC2Eii(ptr noundef nonnull align 4 dereferenceable(8) %3, i32 noundef %6, i32 noundef %9)
  %10 = load i64, ptr %3, align 4
  ret i64 %10
}

; Function Attrs: inlinehint mustprogress nounwind uwtable
define linkonce_odr noundef zeroext i1 @_ZN3url17ShouldTrimFromURLEt(i16 noundef zeroext %0) #5 comdat {
  %2 = alloca i16, align 2
  store i16 %0, ptr %2, align 2, !tbaa !40
  %3 = load i16, ptr %2, align 2, !tbaa !40
  %4 = zext i16 %3 to i32
  %5 = icmp sle i32 %4, 32
  ret i1 %5
}

; Function Attrs: mustprogress nounwind uwtable
define linkonce_odr void @_ZN3url9Component5resetEv(ptr noundef nonnull align 4 dereferenceable(8) %0) #1 comdat align 2 {
  %2 = alloca ptr, align 8
  store ptr %0, ptr %2, align 8, !tbaa !12
  %3 = load ptr, ptr %2, align 8
  %4 = getelementptr inbounds nuw %"struct.url::Component", ptr %3, i32 0, i32 0
  store i32 0, ptr %4, align 4, !tbaa !14
  %5 = getelementptr inbounds nuw %"struct.url::Component", ptr %3, i32 0, i32 1
  store i32 -1, ptr %5, align 4, !tbaa !15
  ret void
}

; Function Attrs: mustprogress nounwind uwtable
define linkonce_odr noundef i32 @_ZNK3url9Component3endEv(ptr noundef nonnull align 4 dereferenceable(8) %0) #1 comdat align 2 {
  %2 = alloca ptr, align 8
  store ptr %0, ptr %2, align 8, !tbaa !12
  %3 = load ptr, ptr %2, align 8
  %4 = getelementptr inbounds nuw %"struct.url::Component", ptr %3, i32 0, i32 0
  %5 = load i32, ptr %4, align 4, !tbaa !14
  %6 = getelementptr inbounds nuw %"struct.url::Component", ptr %3, i32 0, i32 1
  %7 = load i32, ptr %6, align 4, !tbaa !15
  %8 = add nsw i32 %5, %7
  ret i32 %8
}

; Function Attrs: mustprogress uwtable
define internal noundef zeroext i1 @_ZN3url12_GLOBAL__N_115DoExtractSchemeItEEbPKT_iPNS_9ComponentE(ptr noundef %0, i32 noundef %1, ptr noundef %2) #0 {
  %4 = alloca i1, align 1
  %5 = alloca ptr, align 8
  %6 = alloca i32, align 4
  %7 = alloca ptr, align 8
  %8 = alloca i32, align 4
  %9 = alloca i32, align 4
  %10 = alloca i32, align 4
  %11 = alloca %"struct.url::Component", align 4
  store ptr %0, ptr %5, align 8, !tbaa !38
  store i32 %1, ptr %6, align 4, !tbaa !17
  store ptr %2, ptr %7, align 8, !tbaa !12
  call void @llvm.lifetime.start.p0(i64 4, ptr %8) #13
  store i32 0, ptr %8, align 4, !tbaa !17
  br label %12

12:                                               ; preds = %25, %3
  %13 = load i32, ptr %8, align 4, !tbaa !17
  %14 = load i32, ptr %6, align 4, !tbaa !17
  %15 = icmp slt i32 %13, %14
  br i1 %15, label %16, label %23

16:                                               ; preds = %12
  %17 = load ptr, ptr %5, align 8, !tbaa !38
  %18 = load i32, ptr %8, align 4, !tbaa !17
  %19 = sext i32 %18 to i64
  %20 = getelementptr inbounds i16, ptr %17, i64 %19
  %21 = load i16, ptr %20, align 2, !tbaa !40
  %22 = call noundef zeroext i1 @_ZN3url17ShouldTrimFromURLEt(i16 noundef zeroext %21)
  br label %23

23:                                               ; preds = %16, %12
  %24 = phi i1 [ false, %12 ], [ %22, %16 ]
  br i1 %24, label %25, label %28

25:                                               ; preds = %23
  %26 = load i32, ptr %8, align 4, !tbaa !17
  %27 = add nsw i32 %26, 1
  store i32 %27, ptr %8, align 4, !tbaa !17
  br label %12, !llvm.loop !42

28:                                               ; preds = %23
  %29 = load i32, ptr %8, align 4, !tbaa !17
  %30 = load i32, ptr %6, align 4, !tbaa !17
  %31 = icmp eq i32 %29, %30
  br i1 %31, label %32, label %33

32:                                               ; preds = %28
  store i1 false, ptr %4, align 1
  store i32 1, ptr %9, align 4
  br label %60

33:                                               ; preds = %28
  call void @llvm.lifetime.start.p0(i64 4, ptr %10) #13
  %34 = load i32, ptr %8, align 4, !tbaa !17
  store i32 %34, ptr %10, align 4, !tbaa !17
  br label %35

35:                                               ; preds = %54, %33
  %36 = load i32, ptr %10, align 4, !tbaa !17
  %37 = load i32, ptr %6, align 4, !tbaa !17
  %38 = icmp slt i32 %36, %37
  br i1 %38, label %40, label %39

39:                                               ; preds = %35
  store i32 4, ptr %9, align 4
  br label %57

40:                                               ; preds = %35
  %41 = load ptr, ptr %5, align 8, !tbaa !38
  %42 = load i32, ptr %10, align 4, !tbaa !17
  %43 = sext i32 %42 to i64
  %44 = getelementptr inbounds i16, ptr %41, i64 %43
  %45 = load i16, ptr %44, align 2, !tbaa !40
  %46 = zext i16 %45 to i32
  %47 = icmp eq i32 %46, 58
  br i1 %47, label %48, label %53

48:                                               ; preds = %40
  call void @llvm.lifetime.start.p0(i64 8, ptr %11) #13
  %49 = load i32, ptr %8, align 4, !tbaa !17
  %50 = load i32, ptr %10, align 4, !tbaa !17
  %51 = call i64 @_ZN3url9MakeRangeEii(i32 noundef %49, i32 noundef %50)
  store i64 %51, ptr %11, align 4
  %52 = load ptr, ptr %7, align 8, !tbaa !12
  call void @llvm.memcpy.p0.p0.i64(ptr align 4 %52, ptr align 4 %11, i64 8, i1 false), !tbaa.struct !16
  call void @llvm.lifetime.end.p0(i64 8, ptr %11) #13
  store i1 true, ptr %4, align 1
  store i32 1, ptr %9, align 4
  br label %57

53:                                               ; preds = %40
  br label %54

54:                                               ; preds = %53
  %55 = load i32, ptr %10, align 4, !tbaa !17
  %56 = add nsw i32 %55, 1
  store i32 %56, ptr %10, align 4, !tbaa !17
  br label %35, !llvm.loop !43

57:                                               ; preds = %48, %39
  call void @llvm.lifetime.end.p0(i64 4, ptr %10) #13
  %58 = load i32, ptr %9, align 4
  switch i32 %58, label %60 [
    i32 4, label %59
  ]

59:                                               ; preds = %57
  store i1 false, ptr %4, align 1
  store i32 1, ptr %9, align 4
  br label %60

60:                                               ; preds = %59, %57, %32
  call void @llvm.lifetime.end.p0(i64 4, ptr %8) #13
  %61 = load i1, ptr %4, align 1
  ret i1 %61
}

; Function Attrs: inlinehint mustprogress nounwind uwtable
define linkonce_odr void @_ZN3url7TrimURLItEEvPKT_PiS4_b(ptr noundef %0, ptr noundef %1, ptr noundef %2, i1 noundef zeroext %3) #5 comdat {
  %5 = alloca ptr, align 8
  %6 = alloca ptr, align 8
  %7 = alloca ptr, align 8
  %8 = alloca i8, align 1
  store ptr %0, ptr %5, align 8, !tbaa !38
  store ptr %1, ptr %6, align 8, !tbaa !67
  store ptr %2, ptr %7, align 8, !tbaa !67
  %9 = zext i1 %3 to i8
  store i8 %9, ptr %8, align 1, !tbaa !20
  br label %10

10:                                               ; preds = %26, %4
  %11 = load ptr, ptr %6, align 8, !tbaa !67
  %12 = load i32, ptr %11, align 4, !tbaa !17
  %13 = load ptr, ptr %7, align 8, !tbaa !67
  %14 = load i32, ptr %13, align 4, !tbaa !17
  %15 = icmp slt i32 %12, %14
  br i1 %15, label %16, label %24

16:                                               ; preds = %10
  %17 = load ptr, ptr %5, align 8, !tbaa !38
  %18 = load ptr, ptr %6, align 8, !tbaa !67
  %19 = load i32, ptr %18, align 4, !tbaa !17
  %20 = sext i32 %19 to i64
  %21 = getelementptr inbounds i16, ptr %17, i64 %20
  %22 = load i16, ptr %21, align 2, !tbaa !40
  %23 = call noundef zeroext i1 @_ZN3url17ShouldTrimFromURLEt(i16 noundef zeroext %22)
  br label %24

24:                                               ; preds = %16, %10
  %25 = phi i1 [ false, %10 ], [ %23, %16 ]
  br i1 %25, label %26, label %30

26:                                               ; preds = %24
  %27 = load ptr, ptr %6, align 8, !tbaa !67
  %28 = load i32, ptr %27, align 4, !tbaa !17
  %29 = add nsw i32 %28, 1
  store i32 %29, ptr %27, align 4, !tbaa !17
  br label %10, !llvm.loop !71

30:                                               ; preds = %24
  %31 = load i8, ptr %8, align 1, !tbaa !20, !range !26, !noundef !27
  %32 = trunc i8 %31 to i1
  br i1 %32, label %33, label %56

33:                                               ; preds = %30
  br label %34

34:                                               ; preds = %51, %33
  %35 = load ptr, ptr %7, align 8, !tbaa !67
  %36 = load i32, ptr %35, align 4, !tbaa !17
  %37 = load ptr, ptr %6, align 8, !tbaa !67
  %38 = load i32, ptr %37, align 4, !tbaa !17
  %39 = icmp sgt i32 %36, %38
  br i1 %39, label %40, label %49

40:                                               ; preds = %34
  %41 = load ptr, ptr %5, align 8, !tbaa !38
  %42 = load ptr, ptr %7, align 8, !tbaa !67
  %43 = load i32, ptr %42, align 4, !tbaa !17
  %44 = sub nsw i32 %43, 1
  %45 = sext i32 %44 to i64
  %46 = getelementptr inbounds i16, ptr %41, i64 %45
  %47 = load i16, ptr %46, align 2, !tbaa !40
  %48 = call noundef zeroext i1 @_ZN3url17ShouldTrimFromURLEt(i16 noundef zeroext %47)
  br label %49

49:                                               ; preds = %40, %34
  %50 = phi i1 [ false, %34 ], [ %48, %40 ]
  br i1 %50, label %51, label %55

51:                                               ; preds = %49
  %52 = load ptr, ptr %7, align 8, !tbaa !67
  %53 = load i32, ptr %52, align 4, !tbaa !17
  %54 = add nsw i32 %53, -1
  store i32 %54, ptr %52, align 4, !tbaa !17
  br label %34, !llvm.loop !72

55:                                               ; preds = %49
  br label %56

56:                                               ; preds = %55, %30
  ret void
}

; Function Attrs: mustprogress uwtable
define internal void @_ZN3url12_GLOBAL__N_118DoParseStandardURLItEEvPKT_iPNS_6ParsedE(ptr noundef %0, i32 noundef %1, ptr noundef %2) #0 {
  %4 = alloca ptr, align 8
  %5 = alloca i32, align 4
  %6 = alloca ptr, align 8
  %7 = alloca i32, align 4
  %8 = alloca i32, align 4
  store ptr %0, ptr %4, align 8, !tbaa !38
  store i32 %1, ptr %5, align 4, !tbaa !17
  store ptr %2, ptr %6, align 8, !tbaa !3
  call void @llvm.lifetime.start.p0(i64 4, ptr %7) #13
  store i32 0, ptr %7, align 4, !tbaa !17
  %9 = load ptr, ptr %4, align 8, !tbaa !38
  call void @_ZN3url7TrimURLItEEvPKT_PiS4_b(ptr noundef %9, ptr noundef %7, ptr noundef %5, i1 noundef zeroext true)
  call void @llvm.lifetime.start.p0(i64 4, ptr %8) #13
  %10 = load ptr, ptr %4, align 8, !tbaa !38
  %11 = load i32, ptr %5, align 4, !tbaa !17
  %12 = load ptr, ptr %6, align 8, !tbaa !3
  %13 = getelementptr inbounds nuw %"struct.url::Parsed", ptr %12, i32 0, i32 0
  %14 = call noundef zeroext i1 @_ZN3url12_GLOBAL__N_115DoExtractSchemeItEEbPKT_iPNS_9ComponentE(ptr noundef %10, i32 noundef %11, ptr noundef %13)
  br i1 %14, label %15, label %20

15:                                               ; preds = %3
  %16 = load ptr, ptr %6, align 8, !tbaa !3
  %17 = getelementptr inbounds nuw %"struct.url::Parsed", ptr %16, i32 0, i32 0
  %18 = call noundef i32 @_ZNK3url9Component3endEv(ptr noundef nonnull align 4 dereferenceable(8) %17)
  %19 = add nsw i32 %18, 1
  store i32 %19, ptr %8, align 4, !tbaa !17
  br label %24

20:                                               ; preds = %3
  %21 = load ptr, ptr %6, align 8, !tbaa !3
  %22 = getelementptr inbounds nuw %"struct.url::Parsed", ptr %21, i32 0, i32 0
  call void @_ZN3url9Component5resetEv(ptr noundef nonnull align 4 dereferenceable(8) %22)
  %23 = load i32, ptr %7, align 4, !tbaa !17
  store i32 %23, ptr %8, align 4, !tbaa !17
  br label %24

24:                                               ; preds = %20, %15
  %25 = load ptr, ptr %4, align 8, !tbaa !38
  %26 = load i32, ptr %5, align 4, !tbaa !17
  %27 = load i32, ptr %8, align 4, !tbaa !17
  %28 = load ptr, ptr %6, align 8, !tbaa !3
  call void @_ZN3url12_GLOBAL__N_118DoParseAfterSchemeItEEvPKT_iiPNS_6ParsedE(ptr noundef %25, i32 noundef %26, i32 noundef %27, ptr noundef %28)
  call void @llvm.lifetime.end.p0(i64 4, ptr %8) #13
  call void @llvm.lifetime.end.p0(i64 4, ptr %7) #13
  ret void
}

; Function Attrs: mustprogress uwtable
define void @_ZN3url16ParseStandardURLEPKtiPNS_6ParsedE(ptr noundef %0, i32 noundef %1, ptr noundef %2) #0 {
  %4 = alloca ptr, align 8
  %5 = alloca i32, align 4
  %6 = alloca ptr, align 8
  store ptr %0, ptr %4, align 8, !tbaa !38
  store i32 %1, ptr %5, align 4, !tbaa !17
  store ptr %2, ptr %6, align 8, !tbaa !3
  %7 = load ptr, ptr %4, align 8, !tbaa !38
  %8 = load i32, ptr %5, align 4, !tbaa !17
  %9 = load ptr, ptr %6, align 8, !tbaa !3
  call void @_ZN3url12_GLOBAL__N_118DoParseStandardURLItEEvPKT_iPNS_6ParsedE(ptr noundef %7, i32 noundef %8, ptr noundef %9)
  ret void
}