; Function Attrs: mustprogress nofree norecurse nosync nounwind memory(argmem: readwrite) uwtable
define void @_ZN3url16ParseStandardURLEPKtiPNS_6ParsedE(ptr noundef readonly captures(none) %0, i32 noundef %1, ptr noundef writeonly captures(none) %2) local_unnamed_addr #6 {
  %4 = icmp sgt i32 %1, 0
  br i1 %4, label %.lr.ph.i.preheader.i, label %.critedge.i7.i

.lr.ph.i.preheader.i:                             ; preds = %3
  %5 = load i16, ptr %0, align 2, !tbaa !25
  %6 = icmp ult i16 %5, 33
  %7 = zext nneg i32 %1 to i64
  br i1 %6, label %.lr.ph.i, label %.lr.ph14.preheader.i.i

.lr.ph.i:                                         ; preds = %.lr.ph.i.preheader.i
  %8 = add nsw i64 %7, -1
  br label %12

.lr.ph.i.i:                                       ; preds = %12
  %indvars.iv.next.i.i = add nuw nsw i64 %indvars.iv.i39.i, 1
  %9 = getelementptr inbounds nuw i16, ptr %0, i64 %indvars.iv.next.i.i
  %10 = load i16, ptr %9, align 2, !tbaa !25
  %11 = icmp ult i16 %10, 33
  br i1 %11, label %12, label %.critedge.i.i, !llvm.loop !47

12:                                               ; preds = %.lr.ph.i.i, %.lr.ph.i
  %indvars.iv.i39.i = phi i64 [ 0, %.lr.ph.i ], [ %indvars.iv.next.i.i, %.lr.ph.i.i ]
  %exitcond.not.i = icmp eq i64 %indvars.iv.i39.i, %8
  br i1 %exitcond.not.i, label %_ZN3url7TrimURLItEEvPKT_PiS4_b.exit.i, label %.lr.ph.i.i, !llvm.loop !47

.critedge.i.i:                                    ; preds = %.lr.ph.i.i
  %13 = trunc nsw i64 %indvars.iv.next.i.i to i32
  br label %.lr.ph14.preheader.i.i

.lr.ph14.preheader.i.i:                           ; preds = %.lr.ph.i.preheader.i, %.critedge.i.i
  %.01853.i = phi i32 [ %13, %.critedge.i.i ], [ 0, %.lr.ph.i.preheader.i ]
  %invariant.gep.i55.i = getelementptr i8, ptr %0, i64 -2
  %gep.i41.i = getelementptr i16, ptr %invariant.gep.i55.i, i64 %7
  %14 = load i16, ptr %gep.i41.i, align 2, !tbaa !25
  %15 = icmp ult i16 %14, 33
  br i1 %15, label %.lr.ph43.i, label %_ZN3url7TrimURLItEEvPKT_PiS4_b.exit.i

.lr.ph43.i:                                       ; preds = %.lr.ph14.preheader.i.i
  %16 = sext i32 %.01853.i to i64
  br label %19

.lr.ph14.i.i:                                     ; preds = %19
  %gep.i.i = getelementptr i16, ptr %invariant.gep.i55.i, i64 %indvars.iv.next18.i.i
  %17 = load i16, ptr %gep.i.i, align 2, !tbaa !25
  %18 = icmp ult i16 %17, 33
  br i1 %18, label %19, label %_ZN3url7TrimURLItEEvPKT_PiS4_b.exit.loopexit.split.loop.exit.i, !llvm.loop !48

19:                                               ; preds = %.lr.ph14.i.i, %.lr.ph43.i
  %indvars.iv17.i42.i = phi i64 [ %7, %.lr.ph43.i ], [ %indvars.iv.next18.i.i, %.lr.ph14.i.i ]
  %indvars.iv.next18.i.i = add nsw i64 %indvars.iv17.i42.i, -1
  %20 = icmp sgt i64 %indvars.iv.next18.i.i, %16
  br i1 %20, label %.lr.ph14.i.i, label %_ZN3url7TrimURLItEEvPKT_PiS4_b.exit.i, !llvm.loop !48

_ZN3url7TrimURLItEEvPKT_PiS4_b.exit.loopexit.split.loop.exit.i: ; preds = %.lr.ph14.i.i
  %21 = trunc nsw i64 %indvars.iv.next18.i.i to i32
  br label %_ZN3url7TrimURLItEEvPKT_PiS4_b.exit.i

_ZN3url7TrimURLItEEvPKT_PiS4_b.exit.i:            ; preds = %12, %19, %_ZN3url7TrimURLItEEvPKT_PiS4_b.exit.loopexit.split.loop.exit.i, %.lr.ph14.preheader.i.i
  %.01854.i = phi i32 [ %.01853.i, %.lr.ph14.preheader.i.i ], [ %.01853.i, %_ZN3url7TrimURLItEEvPKT_PiS4_b.exit.loopexit.split.loop.exit.i ], [ %.01853.i, %19 ], [ %1, %12 ]
  %.120.i = phi i32 [ %1, %.lr.ph14.preheader.i.i ], [ %21, %_ZN3url7TrimURLItEEvPKT_PiS4_b.exit.loopexit.split.loop.exit.i ], [ %.01853.i, %19 ], [ %1, %12 ]
  %22 = icmp sgt i32 %.120.i, 0
  br i1 %22, label %.lr.ph.preheader.i8.i, label %.critedge.i7.i

.lr.ph.preheader.i8.i:                            ; preds = %_ZN3url7TrimURLItEEvPKT_PiS4_b.exit.i
  %wide.trip.count.i.i = zext nneg i32 %.120.i to i64
  br label %.lr.ph.i9.i

.lr.ph.i9.i:                                      ; preds = %26, %.lr.ph.preheader.i8.i
  %indvars.iv.i10.i = phi i64 [ 0, %.lr.ph.preheader.i8.i ], [ %indvars.iv.next.i11.i, %26 ]
  %23 = getelementptr inbounds nuw i16, ptr %0, i64 %indvars.iv.i10.i
  %24 = load i16, ptr %23, align 2, !tbaa !25
  %25 = icmp ult i16 %24, 33
  br i1 %25, label %26, label %.critedge.loopexit.i.i

26:                                               ; preds = %.lr.ph.i9.i
  %indvars.iv.next.i11.i = add nuw nsw i64 %indvars.iv.i10.i, 1
  %exitcond.not.i.i = icmp eq i64 %indvars.iv.next.i11.i, %wide.trip.count.i.i
  br i1 %exitcond.not.i.i, label %.loopexit.i, label %.lr.ph.i9.i, !llvm.loop !27

.critedge.loopexit.i.i:                           ; preds = %.lr.ph.i9.i
  %27 = trunc nuw nsw i64 %indvars.iv.i10.i to i32
  br label %.critedge.i7.i

.critedge.i7.i:                                   ; preds = %.critedge.loopexit.i.i, %_ZN3url7TrimURLItEEvPKT_PiS4_b.exit.i, %3
  %.12028.i = phi i32 [ %.120.i, %_ZN3url7TrimURLItEEvPKT_PiS4_b.exit.i ], [ %.120.i, %.critedge.loopexit.i.i ], [ %1, %3 ]
  %.0182327.i = phi i32 [ %.01854.i, %_ZN3url7TrimURLItEEvPKT_PiS4_b.exit.i ], [ %.01854.i, %.critedge.loopexit.i.i ], [ 0, %3 ]
  %.019.lcssa.i.i = phi i32 [ 0, %_ZN3url7TrimURLItEEvPKT_PiS4_b.exit.i ], [ %27, %.critedge.loopexit.i.i ], [ 0, %3 ]
  %.not25.i.i = icmp slt i32 %.019.lcssa.i.i, %.12028.i
  br i1 %.not25.i.i, label %.lr.ph27.preheader.i.i, label %.loopexit.i

.lr.ph27.preheader.i.i:                           ; preds = %.critedge.i7.i
  %28 = zext i32 %.019.lcssa.i.i to i64
  %wide.trip.count.i = zext i32 %.12028.i to i64
  br label %.lr.ph27.i.i

.lr.ph27.i.i:                                     ; preds = %32, %.lr.ph27.preheader.i.i
  %indvars.iv30.i.i = phi i64 [ %28, %.lr.ph27.preheader.i.i ], [ %indvars.iv.next31.i.i, %32 ]
  %29 = getelementptr inbounds nuw i16, ptr %0, i64 %indvars.iv30.i.i
  %30 = load i16, ptr %29, align 2, !tbaa !25
  %31 = icmp eq i16 %30, 58
  br i1 %31, label %33, label %32

32:                                               ; preds = %.lr.ph27.i.i
  %indvars.iv.next31.i.i = add nuw nsw i64 %indvars.iv30.i.i, 1
  %exitcond50.not.i = icmp eq i64 %indvars.iv.next31.i.i, %wide.trip.count.i
  br i1 %exitcond50.not.i, label %.loopexit.i, label %.lr.ph27.i.i, !llvm.loop !28

33:                                               ; preds = %.lr.ph27.i.i
  %34 = trunc nuw i64 %indvars.iv30.i.i to i32
  %35 = sub nsw i32 %34, %.019.lcssa.i.i
  %.sroa.2.0.insert.ext.i.i.i = zext i32 %35 to i64
  %.sroa.2.0.insert.shift.i.i.i = shl nuw i64 %.sroa.2.0.insert.ext.i.i.i, 32
  %.sroa.0.0.insert.insert.i.i.i = or disjoint i64 %.sroa.2.0.insert.shift.i.i.i, %28
  store i64 %.sroa.0.0.insert.insert.i.i.i, ptr %2, align 4
  %36 = add i32 %34, 1
  br label %_ZN3url12_GLOBAL__N_118DoParseStandardURLItEEvPKT_iPNS_6ParsedE.exit

.loopexit.i:                                      ; preds = %26, %32, %.critedge.i7.i
  %.12029.ph.i = phi i32 [ %.12028.i, %.critedge.i7.i ], [ %.12028.i, %32 ], [ %.120.i, %26 ]
  %.0182326.ph.i = phi i32 [ %.0182327.i, %.critedge.i7.i ], [ %.0182327.i, %32 ], [ %.01854.i, %26 ]
  store i32 0, ptr %2, align 4, !tbaa !3
  %37 = getelementptr inbounds nuw i8, ptr %2, i64 4
  store i32 -1, ptr %37, align 4, !tbaa !8
  br label %_ZN3url12_GLOBAL__N_118DoParseStandardURLItEEvPKT_iPNS_6ParsedE.exit

_ZN3url12_GLOBAL__N_118DoParseStandardURLItEEvPKT_iPNS_6ParsedE.exit: ; preds = %33, %.loopexit.i
  %.1202933.i = phi i32 [ %.12028.i, %33 ], [ %.12029.ph.i, %.loopexit.i ]
  %.0.i = phi i32 [ %36, %33 ], [ %.0182326.ph.i, %.loopexit.i ]
  tail call fastcc void @_ZN3url12_GLOBAL__N_118DoParseAfterSchemeItEEvPKT_iiPNS_6ParsedE(ptr noundef readonly %0, i32 noundef %.1202933.i, i32 noundef %.0.i, ptr noundef nonnull %2)
  ret void
}